target datalayout = "e-m:e-p270:32:32-p271:32:32-p272:64:64-i64:64-i128:128-f80:128-n8:16:32:64-S128"
target triple = "x86_64-pc-linux-gnu"

@rb_eTypeError = external global i64, align 8
@eOSSLError = external global i64, align 8
@.str.10 = private unnamed_addr constant [31 x i8] c"Can't convert nil into Integer\00", align 1

; Function Attrs: inlinehint nounwind sspstrong willreturn memory(none) uwtable
define internal zeroext i1 @RB_NIL_P(i64 noundef %0) #8 {
  %2 = alloca i64, align 8
  store i64 %0, ptr %2, align 8, !tbaa !20
  %3 = load i64, ptr %2, align 8, !tbaa !20
  %4 = icmp eq i64 %3, 4
  ret i1 %4
}

; Function Attrs: nounwind sspstrong uwtable
define ptr @num_to_asn1integer(i64 noundef %0, ptr noundef %1) #0 {
  %3 = alloca i64, align 8
  %4 = alloca ptr, align 8
  %5 = alloca ptr, align 8
  store i64 %0, ptr %3, align 8, !tbaa !20
  store ptr %1, ptr %4, align 8, !tbaa !6
  call void @llvm.lifetime.start.p0(i64 8, ptr %5) #16
  %6 = load i64, ptr %3, align 8, !tbaa !20
  %7 = call zeroext i1 @RB_NIL_P(i64 noundef %6) #19
  br i1 %7, label %8, label %10

8:                                                ; preds = %2
  %9 = load i64, ptr @rb_eTypeError, align 8, !tbaa !20
  call void (i64, ptr, ...) @ossl_raise(i64 noundef %9, ptr noundef @.str.10) #17
  unreachable

10:                                               ; preds = %2
  %11 = call ptr @ossl_bn_value_ptr(ptr noundef %3)
  store ptr %11, ptr %5, align 8, !tbaa !35
  %12 = load ptr, ptr %5, align 8, !tbaa !35
  %13 = load ptr, ptr %4, align 8, !tbaa !6
  %14 = call ptr @BN_to_ASN1_INTEGER(ptr noundef %12, ptr noundef %13)
  store ptr %14, ptr %4, align 8, !tbaa !6
  %15 = icmp ne ptr %14, null
  br i1 %15, label %18, label %16

16:                                               ; preds = %10
  %17 = load i64, ptr @eOSSLError, align 8, !tbaa !20
  call void (i64, ptr, ...) @ossl_raise(i64 noundef %17, ptr noundef null) #17
  unreachable

18:                                               ; preds = %10
  %19 = load ptr, ptr %4, align 8, !tbaa !6
  call void @llvm.lifetime.end.p0(i64 8, ptr %5) #16
  ret ptr %19
}