; Function Attrs: nounwind sspstrong uwtable
define nonnull ptr @num_to_asn1integer(i64 noundef %0, ptr noundef %1) local_unnamed_addr #0 {
  %3 = alloca i64, align 8
  store i64 %0, ptr %3, align 8, !tbaa !17
  %4 = icmp eq i64 %0, 4
  br i1 %4, label %5, label %7

5:                                                ; preds = %2
  %6 = load i64, ptr @rb_eTypeError, align 8, !tbaa !17
  tail call void (i64, ptr, ...) @ossl_raise(i64 noundef %6, ptr noundef nonnull @.str.10) #10
  unreachable

7:                                                ; preds = %2
  %8 = call ptr @ossl_bn_value_ptr(ptr noundef nonnull %3) #9
  %9 = call ptr @BN_to_ASN1_INTEGER(ptr noundef %8, ptr noundef %1) #9
  %.not = icmp eq ptr %9, null
  br i1 %.not, label %10, label %12

10:                                               ; preds = %7
  %11 = load i64, ptr @eOSSLError, align 8, !tbaa !17
  call void (i64, ptr, ...) @ossl_raise(i64 noundef %11, ptr noundef null) #10
  unreachable

12:                                               ; preds = %7
  ret ptr %9
}